target datalayout = "e-m:e-p270:32:32-p271:32:32-p272:64:64-i64:64-i128:128-f80:128-n8:16:32:64-S128"
target triple = "x86_64-pc-linux-gnu"

%struct.mq = type { ptr, i32, i32, ptr, ptr, i64, ptr, i64, ptr, i64, ptr, i8, ptr, ptr, [10 x %struct.mq_item] }
%struct.mq_item = type { i32, i64, i64 }
%struct.LimExNFA256 = type { [256 x i8], i32, i32, i32, i32, i32, i32, i32, i32, i32, i32, i32, i32, i32, i32, i32, i32, i32, i32, i32, <4 x i64>, <4 x i64>, <4 x i64>, <4 x i64>, <4 x i64>, <4 x i64>, <4 x i64>, <4 x i64>, <4 x i64>, <4 x i64>, <4 x i64>, <4 x i64>, [8 x <4 x i64>], i32, [8 x i8], %struct.m512, %struct.m512, %struct.m512 }
%struct.m512 = type { <4 x i64>, <4 x i64> }
%union.RepeatControl = type { %struct.RepeatRingControl }
%struct.RepeatRingControl = type { i64, i16, i16 }

; Function Attrs: alwaysinline nounwind uwtable
define internal <4 x i64> @_mm256_setzero_si256() #3 {
  %1 = alloca <4 x i64>, align 32
  store <4 x i64> zeroinitializer, ptr %1, align 32
  %2 = load <4 x i64>, ptr %1, align 32
  ret <4 x i64> %2
}

; Function Attrs: alwaysinline nounwind uwtable
define internal ptr @getRepeatControlBase(ptr noundef %0, i64 noundef %1) #2 {
  %3 = alloca ptr, align 8
  %4 = alloca i64, align 8
  %5 = alloca ptr, align 8
  store ptr %0, ptr %3, align 8
  store i64 %1, ptr %4, align 8
  call void @llvm.lifetime.start.p0(i64 8, ptr %5) #14
  %6 = load ptr, ptr %3, align 8
  %7 = load i64, ptr %4, align 8
  %8 = add i64 %7, 7
  %9 = and i64 %8, -8
  %10 = getelementptr inbounds nuw i8, ptr %6, i64 %9
  store ptr %10, ptr %5, align 8
  %11 = load ptr, ptr %5, align 8
  call void @llvm.lifetime.end.p0(i64 8, ptr %5) #14
  ret ptr %11
}

; Function Attrs: alwaysinline nounwind uwtable
define internal <4 x i64> @zeroes256() #3 {
  %1 = call <4 x i64> @_mm256_setzero_si256()
  ret <4 x i64> %1
}

; Function Attrs: nounwind uwtable
define hidden signext i8 @nfaExecLimEx256_queueInitState(ptr noundef %0, ptr noundef %1) #4 {
  %3 = alloca ptr, align 8
  %4 = alloca ptr, align 8
  %5 = alloca ptr, align 8
  %6 = alloca ptr, align 8
  %7 = alloca i32, align 4
  store ptr %0, ptr %3, align 8
  store ptr %1, ptr %4, align 8
  %8 = call <4 x i64> @zeroes256()
  %9 = load ptr, ptr %4, align 8
  %10 = getelementptr inbounds nuw %struct.mq, ptr %9, i32 0, i32 3
  %11 = load ptr, ptr %10, align 8
  store <4 x i64> %8, ptr %11, align 32
  call void @llvm.lifetime.start.p0(i64 8, ptr %5) #14
  %12 = load ptr, ptr %3, align 8
  %13 = getelementptr inbounds nuw i8, ptr %12, i64 64
  store ptr %13, ptr %5, align 8
  call void @llvm.lifetime.start.p0(i64 8, ptr %6) #14
  %14 = load ptr, ptr %4, align 8
  %15 = getelementptr inbounds nuw %struct.mq, ptr %14, i32 0, i32 3
  %16 = load ptr, ptr %15, align 8
  %17 = call ptr @getRepeatControlBase(ptr noundef %16, i64 noundef 32)
  store ptr %17, ptr %6, align 8
  call void @llvm.lifetime.start.p0(i64 4, ptr %7) #14
  store i32 0, ptr %7, align 4
  br label %18

18:                                               ; preds = %30, %2
  %19 = load i32, ptr %7, align 4
  %20 = load ptr, ptr %5, align 8
  %21 = getelementptr inbounds nuw %struct.LimExNFA256, ptr %20, i32 0, i32 12
  %22 = load i32, ptr %21, align 4
  %23 = icmp ult i32 %19, %22
  br i1 %23, label %25, label %24

24:                                               ; preds = %18
  call void @llvm.lifetime.end.p0(i64 4, ptr %7) #14
  br label %33

25:                                               ; preds = %18
  %26 = load ptr, ptr %6, align 8
  %27 = load i32, ptr %7, align 4
  %28 = zext i32 %27 to i64
  %29 = getelementptr inbounds nuw %union.RepeatControl, ptr %26, i64 %28
  call void @llvm.memset.p0.i64(ptr align 8 %29, i8 0, i64 16, i1 false)
  br label %30

30:                                               ; preds = %25
  %31 = load i32, ptr %7, align 4
  %32 = add i32 %31, 1
  store i32 %32, ptr %7, align 4
  br label %18

33:                                               ; preds = %24
  call void @llvm.lifetime.end.p0(i64 8, ptr %6) #14
  call void @llvm.lifetime.end.p0(i64 8, ptr %5) #14
  ret i8 0
}