; Function Attrs: nofree norecurse nosync nounwind memory(write, argmem: readwrite, inaccessiblemem: none) uwtable
define hidden noundef signext i8 @nfaExecLimEx256_queueInitState(ptr noundef readonly captures(none) %0, ptr noundef readonly captures(none) %1) local_unnamed_addr #2 {
  %3 = getelementptr inbounds nuw i8, ptr %1, i64 16
  %4 = load ptr, ptr %3, align 8
  store <4 x i64> zeroinitializer, ptr %4, align 32
  %5 = load ptr, ptr %3, align 8
  %6 = getelementptr inbounds nuw i8, ptr %5, i64 32
  %7 = getelementptr inbounds nuw i8, ptr %0, i64 364
  %8 = load i32, ptr %7, align 4
  %.not = icmp eq i32 %8, 0
  br i1 %.not, label %._crit_edge, label %.lr.ph

._crit_edge:                                      ; preds = %.lr.ph, %2
  ret i8 0

.lr.ph:                                           ; preds = %2, %.lr.ph
  %indvars.iv = phi i64 [ %indvars.iv.next, %.lr.ph ], [ 0, %2 ]
  %9 = getelementptr inbounds nuw %union.RepeatControl, ptr %6, i64 %indvars.iv
  tail call void @llvm.memset.p0.i64(ptr noundef nonnull align 8 dereferenceable(16) %9, i8 0, i64 16, i1 false)
  %indvars.iv.next = add nuw nsw i64 %indvars.iv, 1
  %10 = load i32, ptr %7, align 4
  %11 = zext i32 %10 to i64
  %12 = icmp samesign ult i64 %indvars.iv.next, %11
  br i1 %12, label %.lr.ph, label %._crit_edge
}